(lp0
(lp1
S'https://thehackernews.com/search/label/Malware'
p2
aS'https://thehackernews.com/search/label/Malware?updated-max=2018-04-16T03:15:00-11:00&max-results=20&start=17&by-date=false'
p3
aS'https://thehackernews.com/search/label/Malware?updated-max=2018-01-16T05:42:00-11:00&max-results=20&start=34&by-date=false'
p4
aS'https://thehackernews.com/search/label/Malware?updated-max=2017-11-14T23:06:00-11:00&max-results=20&start=51&by-date=false'
p5
aS'https://thehackernews.com/search/label/Malware?updated-max=2017-09-20T06:08:00-11:00&max-results=20&start=71&by-date=false'
p6
aS'https://thehackernews.com/search/label/Malware?updated-max=2017-08-03T20:58:00-11:00&max-results=20&start=88&by-date=false'
p7
aS'https://thehackernews.com/search/label/Malware?updated-max=2017-06-14T01:23:00-11:00&max-results=20&start=104&by-date=false'
p8
aS'https://thehackernews.com/search/label/Malware?updated-max=2017-04-27T21:57:00-11:00&max-results=20&start=121&by-date=false'
p9
aS'https://thehackernews.com/search/label/Malware?updated-max=2017-02-17T06:31:00-11:00&max-results=20&start=139&by-date=false'
p10
aS'https://thehackernews.com/search/label/Malware?updated-max=2016-11-30T05:44:00-11:00&max-results=20&start=159&by-date=false'
p11
aa(lp12
S'https://thehackernews.com/search/label/Malware?updated-max=2016-09-22T00:34:00-11:00&max-results=20&start=177&by-date=false'
p13
aS'https://thehackernews.com/search/label/Malware?updated-max=2016-06-07T22:29:00-11:00&max-results=20&start=197&by-date=false'
p14
aS'https://thehackernews.com/search/label/Malware?updated-max=2016-03-23T05:56:00-11:00&max-results=20&start=217&by-date=false'
p15
aS'https://thehackernews.com/search/label/Malware?updated-max=2016-02-04T22:28:00-11:00&max-results=20&start=233&by-date=false'
p16
aS'https://thehackernews.com/search/label/Malware?updated-max=2015-11-09T00:47:00-11:00&max-results=20&start=250&by-date=false'
p17
aS'https://thehackernews.com/search/label/Malware?updated-max=2015-10-05T00:40:00-11:00&max-results=20&start=264&by-date=false'
p18
aS'https://thehackernews.com/search/label/Malware?updated-max=2015-09-06T23:35:00-11:00&max-results=20&start=278&by-date=false'
p19
aS'https://thehackernews.com/search/label/Malware?updated-max=2015-07-03T22:37:00-11:00&max-results=20&start=295&by-date=false'
p20
aS'https://thehackernews.com/search/label/Malware?updated-max=2015-04-15T22:35:00-11:00&max-results=20&start=312&by-date=false'
p21
aS'https://thehackernews.com/search/label/Malware?updated-max=2015-02-19T07:16:00-11:00&max-results=20&start=328&by-date=false'
p22
aa(lp23
S'https://thehackernews.com/search/label/Malware?updated-max=2014-12-01T22:54:00-11:00&max-results=20&start=348&by-date=false'
p24
aS'https://thehackernews.com/search/label/Malware?updated-max=2014-09-30T22:10:00-11:00&max-results=20&start=366&by-date=false'
p25
aS'https://thehackernews.com/search/label/Malware?updated-max=2014-08-05T20:10:00-11:00&max-results=20&start=383&by-date=false'
p26
aS'https://thehackernews.com/search/label/Malware?updated-max=2014-06-30T22:37:00-11:00&max-results=20&start=401&by-date=false'
p27
aS'https://thehackernews.com/search/label/Malware?updated-max=2014-05-28T06:25:00-11:00&max-results=20&start=417&by-date=false'
p28
aS'https://thehackernews.com/search/label/Malware?updated-max=2014-05-06T01:09:00-11:00&max-results=20&start=433&by-date=false'
p29
aS'https://thehackernews.com/search/label/Malware?updated-max=2014-03-31T05:25:00-11:00&max-results=20&start=450&by-date=false'
p30
aS'https://thehackernews.com/search/label/Malware?updated-max=2014-03-12T23:20:00-11:00&max-results=20&start=465&by-date=false'
p31
aS'https://thehackernews.com/search/label/Malware?updated-max=2014-02-11T00:59:00-11:00&max-results=20&start=481&by-date=false'
p32
aS'https://thehackernews.com/search/label/Malware?updated-max=2014-01-26T23:45:00-11:00&max-results=20&start=500&by-date=false'
p33
aa(lp34
S'https://thehackernews.com/search/label/Malware?updated-max=2014-01-04T01:00:00-11:00&max-results=20&start=518&by-date=false'
p35
aS'https://thehackernews.com/search/label/Malware?updated-max=2013-12-03T05:56:00-11:00&max-results=20&start=537&by-date=false'
p36
aS'https://thehackernews.com/search/label/Malware?updated-max=2013-10-29T02:59:00-11:00&max-results=20&start=555&by-date=false'
p37
aS'https://thehackernews.com/search/label/Malware?updated-max=2013-09-08T04:08:00-11:00&max-results=20&start=575&by-date=false'
p38
aS'https://thehackernews.com/search/label/Malware?updated-max=2013-07-11T07:26:00-11:00&max-results=20&start=595&by-date=false'
p39
aS'https://thehackernews.com/search/label/Malware?updated-max=2013-05-28T07:18:00-11:00&max-results=20&start=615&by-date=false'
p40
aS'https://thehackernews.com/search/label/Malware?updated-max=2013-03-20T05:27:00-11:00&max-results=20&start=635&by-date=false'
p41
aS'https://thehackernews.com/search/label/Malware?updated-max=2013-02-10T04:49:00-11:00&max-results=20&start=655&by-date=false'
p42
aS'https://thehackernews.com/search/label/Malware?updated-max=2012-12-20T03:42:00-11:00&max-results=20&start=675&by-date=false'
p43
aS'https://thehackernews.com/search/label/Malware?updated-max=2012-11-12T09:41:00-11:00&max-results=20&start=695&by-date=false'
p44
aa(lp45
S'https://thehackernews.com/search/label/Malware?updated-max=2012-10-26T11:43:00-11:00&max-results=20&start=715&by-date=false'
p46
aS'https://thehackernews.com/search/label/Malware?updated-max=2012-10-01T05:36:00-11:00&max-results=20&start=735&by-date=false'
p47
aS'https://thehackernews.com/search/label/Malware?updated-max=2012-08-27T07:39:00-11:00&max-results=20&start=755&by-date=false'
p48
aS'https://thehackernews.com/search/label/Malware?updated-max=2012-07-24T13:04:00-11:00&max-results=20&start=775&by-date=false'
p49
aS'https://thehackernews.com/search/label/Malware?updated-max=2012-05-30T05:07:00-11:00&max-results=20&start=795&by-date=false'
p50
aS'https://thehackernews.com/search/label/Malware?updated-max=2012-04-14T18:39:00-11:00&max-results=20&start=815&by-date=false'
p51
aS'https://thehackernews.com/search/label/Malware?updated-max=2012-03-19T06:09:00-11:00&max-results=20&start=835&by-date=false'
p52
aS'https://thehackernews.com/search/label/Malware?updated-max=2012-02-22T03:29:00-11:00&max-results=20&start=855&by-date=false'
p53
aS'https://thehackernews.com/search/label/Malware?updated-max=2012-01-09T05:08:00-11:00&max-results=20&start=875&by-date=false'
p54
aS'https://thehackernews.com/search/label/Malware?updated-max=2011-11-24T22:25:00-11:00&max-results=20&start=893&by-date=false'
p55
aa(lp56
S'https://thehackernews.com/search/label/Malware?updated-max=2011-10-21T03:28:00-11:00&max-results=20&start=913&by-date=false'
p57
aS'https://thehackernews.com/search/label/Malware?updated-max=2011-09-21T08:23:00-11:00&max-results=20&start=933&by-date=false'
p58
aS'https://thehackernews.com/search/label/Malware?updated-max=2011-07-23T02:25:00-11:00&max-results=20&start=953&by-date=false'
p59
aS'https://thehackernews.com/search/label/Malware?updated-max=2011-04-20T03:22:00-11:00&max-results=20&start=973&by-date=false'
p60
aS'https://thehackernews.com/search/label/Malware?updated-max=2011-03-09T05:06:00-11:00&max-results=20&start=993&by-date=false'
p61
aS'https://thehackernews.com/search/label/Malware?updated-max=2011-02-13T06:04:00-11:00&max-results=20&start=1003&by-date=false'
p62
aS'https://thehackernews.com/search/label/Malware?updated-max=2011-01-19T18:54:00-11:00&max-results=20&start=1023&by-date=false'
p63
aS'https://thehackernews.com/search/label/Malware?updated-max=2011-01-04T14:06:00-11:00&max-results=20&start=1037&by-date=false'
p64
aS'https://thehackernews.com/search/label/Malware?updated-max=2010-12-18T13:46:00-11:00&max-results=20&start=1053&by-date=false'
p65
aa.